; Function Attrs: nounwind uwtable
define dso_local void @packdouble(double noundef %0, ptr noundef %1) #0 {
  %3 = getelementptr inbounds nuw i8, ptr %1, i64 16
  %4 = load i32, ptr %3, align 8
  %5 = getelementptr inbounds nuw i8, ptr %1, i64 20
  %6 = load i32, ptr %5, align 4
  %7 = sub i32 %4, %6
  %8 = icmp ult i32 %7, 8
  br i1 %8, label %9, label %try_grow_buf_remaining.exit

9:                                                ; preds = %2
  %10 = add i32 %4, 16384
  %11 = zext i32 %10 to i64
  %12 = getelementptr inbounds nuw i8, ptr %1, i64 24
  %13 = load i8, ptr %12, align 8, !range !8, !noundef !9
  %14 = trunc nuw i8 %13 to i1
  br i1 %14, label %try_grow_buf_remaining.exit.thread, label %15

15:                                               ; preds = %9
  %16 = getelementptr inbounds nuw i8, ptr %1, i64 25
  %17 = load i8, ptr %16, align 1, !range !8, !noundef !9
  %18 = trunc nuw i8 %17 to i1
  br i1 %18, label %try_grow_buf_remaining.exit.thread, label %19

19:                                               ; preds = %15
  %20 = icmp ugt i32 %10, -65536
  br i1 %20, label %21, label %23

21:                                               ; preds = %19
  %22 = tail call i32 (ptr, ...) @error(ptr noundef nonnull @.str.8, ptr noundef nonnull @__func__.try_grow_buf, i64 noundef %11, i32 noundef -65536) #14
  br label %try_grow_buf_remaining.exit.thread

23:                                               ; preds = %19
  %24 = getelementptr inbounds nuw i8, ptr %1, i64 8
  %25 = tail call ptr @slurm_xrecalloc(ptr noundef nonnull %24, i64 noundef 1, i64 noundef %11, i1 noundef zeroext true, i1 noundef zeroext true, ptr noundef nonnull @.str.1, i32 noundef 238, ptr noundef nonnull @__func__.try_grow_buf) #14
  %.not.i.i = icmp eq ptr %25, null
  br i1 %.not.i.i, label %try_grow_buf_remaining.exit.thread, label %26

26:                                               ; preds = %23
  store i32 %10, ptr %3, align 8
  %.pre = load i32, ptr %5, align 4
  br label %try_grow_buf_remaining.exit

try_grow_buf_remaining.exit:                      ; preds = %26, %2
  %27 = phi i32 [ %.pre, %26 ], [ %6, %2 ]
  %28 = fmul double %0, 1.000000e+06
  %29 = bitcast double %28 to i64
  %30 = tail call i64 @llvm.bswap.i64(i64 %29)
  %31 = getelementptr inbounds nuw i8, ptr %1, i64 8
  %32 = load ptr, ptr %31, align 8
  %33 = zext i32 %27 to i64
  %34 = getelementptr inbounds nuw i8, ptr %32, i64 %33
  store i64 %30, ptr %34, align 1
  %35 = load i32, ptr %5, align 4
  %36 = add i32 %35, 8
  store i32 %36, ptr %5, align 4
  br label %try_grow_buf_remaining.exit.thread

try_grow_buf_remaining.exit.thread:               ; preds = %23, %9, %15, %21, %try_grow_buf_remaining.exit
  ret void
}